target datalayout = "e-m:e-p270:32:32-p271:32:32-p272:64:64-i64:64-i128:128-f80:128-n8:16:32:64-S128"
target triple = "x86_64-pc-linux-gnu"

%struct.rsa_st = type { i32, ptr, i32, ptr, ptr, ptr, ptr, ptr, ptr, ptr, ptr, ptr, ptr, %struct.rsa_pss_params_30_st, ptr, ptr, %struct.crypto_ex_data_st, %struct.CRYPTO_REF_COUNT, i32, ptr, ptr, ptr, ptr, ptr, ptr, i32 }
%struct.rsa_pss_params_30_st = type { i32, %struct.anon, i32, i32 }
%struct.anon = type { i32, i32 }
%struct.crypto_ex_data_st = type { ptr, ptr }
%struct.CRYPTO_REF_COUNT = type { i32 }

; Function Attrs: nounwind uwtable
define i32 @ossl_rsa_check_crt_components(ptr noundef %0, ptr noundef %1) #0 {
  %3 = alloca i32, align 4
  %4 = alloca ptr, align 8
  %5 = alloca ptr, align 8
  %6 = alloca i32, align 4
  %7 = alloca ptr, align 8
  %8 = alloca ptr, align 8
  %9 = alloca ptr, align 8
  %10 = alloca i32, align 4
  store ptr %0, ptr %4, align 8, !tbaa !3
  store ptr %1, ptr %5, align 8, !tbaa !8
  call void @llvm.lifetime.start.p0(i64 4, ptr %6) #3
  store i32 0, ptr %6, align 4, !tbaa !10
  call void @llvm.lifetime.start.p0(i64 8, ptr %7) #3
  store ptr null, ptr %7, align 8, !tbaa !12
  call void @llvm.lifetime.start.p0(i64 8, ptr %8) #3
  store ptr null, ptr %8, align 8, !tbaa !12
  call void @llvm.lifetime.start.p0(i64 8, ptr %9) #3
  store ptr null, ptr %9, align 8, !tbaa !12
  %11 = load ptr, ptr %4, align 8, !tbaa !3
  %12 = getelementptr inbounds nuw %struct.rsa_st, ptr %11, i32 0, i32 10
  %13 = load ptr, ptr %12, align 8, !tbaa !14
  %14 = icmp eq ptr %13, null
  br i1 %14, label %25, label %15

15:                                               ; preds = %2
  %16 = load ptr, ptr %4, align 8, !tbaa !3
  %17 = getelementptr inbounds nuw %struct.rsa_st, ptr %16, i32 0, i32 11
  %18 = load ptr, ptr %17, align 8, !tbaa !28
  %19 = icmp eq ptr %18, null
  br i1 %19, label %25, label %20

20:                                               ; preds = %15
  %21 = load ptr, ptr %4, align 8, !tbaa !3
  %22 = getelementptr inbounds nuw %struct.rsa_st, ptr %21, i32 0, i32 12
  %23 = load ptr, ptr %22, align 8, !tbaa !29
  %24 = icmp eq ptr %23, null
  br i1 %24, label %25, label %42

25:                                               ; preds = %20, %15, %2
  %26 = load ptr, ptr %4, align 8, !tbaa !3
  %27 = getelementptr inbounds nuw %struct.rsa_st, ptr %26, i32 0, i32 10
  %28 = load ptr, ptr %27, align 8, !tbaa !14
  %29 = icmp ne ptr %28, null
  br i1 %29, label %40, label %30

30:                                               ; preds = %25
  %31 = load ptr, ptr %4, align 8, !tbaa !3
  %32 = getelementptr inbounds nuw %struct.rsa_st, ptr %31, i32 0, i32 11
  %33 = load ptr, ptr %32, align 8, !tbaa !28
  %34 = icmp ne ptr %33, null
  br i1 %34, label %40, label %35

35:                                               ; preds = %30
  %36 = load ptr, ptr %4, align 8, !tbaa !3
  %37 = getelementptr inbounds nuw %struct.rsa_st, ptr %36, i32 0, i32 12
  %38 = load ptr, ptr %37, align 8, !tbaa !29
  %39 = icmp ne ptr %38, null
  br i1 %39, label %40, label %41

40:                                               ; preds = %35, %30, %25
  store i32 0, ptr %3, align 4
  store i32 1, ptr %10, align 4
  br label %184

41:                                               ; preds = %35
  store i32 1, ptr %3, align 4
  store i32 1, ptr %10, align 4
  br label %184

42:                                               ; preds = %20
  %43 = load ptr, ptr %5, align 8, !tbaa !8
  call void @BN_CTX_start(ptr noundef %43)
  %44 = load ptr, ptr %5, align 8, !tbaa !8
  %45 = call ptr @BN_CTX_get(ptr noundef %44)
  store ptr %45, ptr %7, align 8, !tbaa !12
  %46 = load ptr, ptr %5, align 8, !tbaa !8
  %47 = call ptr @BN_CTX_get(ptr noundef %46)
  store ptr %47, ptr %8, align 8, !tbaa !12
  %48 = load ptr, ptr %5, align 8, !tbaa !8
  %49 = call ptr @BN_CTX_get(ptr noundef %48)
  store ptr %49, ptr %9, align 8, !tbaa !12
  %50 = load ptr, ptr %9, align 8, !tbaa !12
  %51 = icmp ne ptr %50, null
  br i1 %51, label %52, label %56

52:                                               ; preds = %42
  %53 = load ptr, ptr %7, align 8, !tbaa !12
  call void @BN_set_flags(ptr noundef %53, i32 noundef 4)
  %54 = load ptr, ptr %8, align 8, !tbaa !12
  call void @BN_set_flags(ptr noundef %54, i32 noundef 4)
  %55 = load ptr, ptr %9, align 8, !tbaa !12
  call void @BN_set_flags(ptr noundef %55, i32 noundef 4)
  store i32 1, ptr %6, align 4, !tbaa !10
  br label %57

56:                                               ; preds = %42
  store i32 0, ptr %6, align 4, !tbaa !10
  br label %57

57:                                               ; preds = %56, %52
  %58 = load i32, ptr %6, align 4, !tbaa !10
  %59 = icmp ne i32 %58, 0
  br i1 %59, label %60, label %176

60:                                               ; preds = %57
  %61 = load ptr, ptr %8, align 8, !tbaa !12
  %62 = load ptr, ptr %4, align 8, !tbaa !3
  %63 = getelementptr inbounds nuw %struct.rsa_st, ptr %62, i32 0, i32 8
  %64 = load ptr, ptr %63, align 8, !tbaa !30
  %65 = call ptr @BN_copy(ptr noundef %61, ptr noundef %64)
  %66 = icmp ne ptr %65, null
  br i1 %66, label %67, label %176

67:                                               ; preds = %60
  %68 = load ptr, ptr %8, align 8, !tbaa !12
  %69 = call i32 @BN_sub_word(ptr noundef %68, i64 noundef 1)
  %70 = icmp ne i32 %69, 0
  br i1 %70, label %71, label %176

71:                                               ; preds = %67
  %72 = load ptr, ptr %9, align 8, !tbaa !12
  %73 = load ptr, ptr %4, align 8, !tbaa !3
  %74 = getelementptr inbounds nuw %struct.rsa_st, ptr %73, i32 0, i32 9
  %75 = load ptr, ptr %74, align 8, !tbaa !31
  %76 = call ptr @BN_copy(ptr noundef %72, ptr noundef %75)
  %77 = icmp ne ptr %76, null
  br i1 %77, label %78, label %176

78:                                               ; preds = %71
  %79 = load ptr, ptr %9, align 8, !tbaa !12
  %80 = call i32 @BN_sub_word(ptr noundef %79, i64 noundef 1)
  %81 = icmp ne i32 %80, 0
  br i1 %81, label %82, label %176

82:                                               ; preds = %78
  %83 = load ptr, ptr %4, align 8, !tbaa !3
  %84 = getelementptr inbounds nuw %struct.rsa_st, ptr %83, i32 0, i32 10
  %85 = load ptr, ptr %84, align 8, !tbaa !14
  %86 = call ptr @BN_value_one()
  %87 = call i32 @BN_cmp(ptr noundef %85, ptr noundef %86)
  %88 = icmp sgt i32 %87, 0
  br i1 %88, label %89, label %176

89:                                               ; preds = %82
  %90 = load ptr, ptr %4, align 8, !tbaa !3
  %91 = getelementptr inbounds nuw %struct.rsa_st, ptr %90, i32 0, i32 10
  %92 = load ptr, ptr %91, align 8, !tbaa !14
  %93 = load ptr, ptr %8, align 8, !tbaa !12
  %94 = call i32 @BN_cmp(ptr noundef %92, ptr noundef %93)
  %95 = icmp slt i32 %94, 0
  br i1 %95, label %96, label %176

96:                                               ; preds = %89
  %97 = load ptr, ptr %4, align 8, !tbaa !3
  %98 = getelementptr inbounds nuw %struct.rsa_st, ptr %97, i32 0, i32 11
  %99 = load ptr, ptr %98, align 8, !tbaa !28
  %100 = call ptr @BN_value_one()
  %101 = call i32 @BN_cmp(ptr noundef %99, ptr noundef %100)
  %102 = icmp sgt i32 %101, 0
  br i1 %102, label %103, label %176

103:                                              ; preds = %96
  %104 = load ptr, ptr %4, align 8, !tbaa !3
  %105 = getelementptr inbounds nuw %struct.rsa_st, ptr %104, i32 0, i32 11
  %106 = load ptr, ptr %105, align 8, !tbaa !28
  %107 = load ptr, ptr %9, align 8, !tbaa !12
  %108 = call i32 @BN_cmp(ptr noundef %106, ptr noundef %107)
  %109 = icmp slt i32 %108, 0
  br i1 %109, label %110, label %176

110:                                              ; preds = %103
  %111 = load ptr, ptr %4, align 8, !tbaa !3
  %112 = getelementptr inbounds nuw %struct.rsa_st, ptr %111, i32 0, i32 12
  %113 = load ptr, ptr %112, align 8, !tbaa !29
  %114 = call ptr @BN_value_one()
  %115 = call i32 @BN_cmp(ptr noundef %113, ptr noundef %114)
  %116 = icmp sgt i32 %115, 0
  br i1 %116, label %117, label %176

117:                                              ; preds = %110
  %118 = load ptr, ptr %4, align 8, !tbaa !3
  %119 = getelementptr inbounds nuw %struct.rsa_st, ptr %118, i32 0, i32 12
  %120 = load ptr, ptr %119, align 8, !tbaa !29
  %121 = load ptr, ptr %4, align 8, !tbaa !3
  %122 = getelementptr inbounds nuw %struct.rsa_st, ptr %121, i32 0, i32 8
  %123 = load ptr, ptr %122, align 8, !tbaa !30
  %124 = call i32 @BN_cmp(ptr noundef %120, ptr noundef %123)
  %125 = icmp slt i32 %124, 0
  br i1 %125, label %126, label %176

126:                                              ; preds = %117
  %127 = load ptr, ptr %7, align 8, !tbaa !12
  %128 = load ptr, ptr %4, align 8, !tbaa !3
  %129 = getelementptr inbounds nuw %struct.rsa_st, ptr %128, i32 0, i32 10
  %130 = load ptr, ptr %129, align 8, !tbaa !14
  %131 = load ptr, ptr %4, align 8, !tbaa !3
  %132 = getelementptr inbounds nuw %struct.rsa_st, ptr %131, i32 0, i32 6
  %133 = load ptr, ptr %132, align 8, !tbaa !32
  %134 = load ptr, ptr %8, align 8, !tbaa !12
  %135 = load ptr, ptr %5, align 8, !tbaa !8
  %136 = call i32 @BN_mod_mul(ptr noundef %127, ptr noundef %130, ptr noundef %133, ptr noundef %134, ptr noundef %135)
  %137 = icmp ne i32 %136, 0
  br i1 %137, label %138, label %176

138:                                              ; preds = %126
  %139 = load ptr, ptr %7, align 8, !tbaa !12
  %140 = call i32 @BN_is_one(ptr noundef %139)
  %141 = icmp ne i32 %140, 0
  br i1 %141, label %142, label %176

142:                                              ; preds = %138
  %143 = load ptr, ptr %7, align 8, !tbaa !12
  %144 = load ptr, ptr %4, align 8, !tbaa !3
  %145 = getelementptr inbounds nuw %struct.rsa_st, ptr %144, i32 0, i32 11
  %146 = load ptr, ptr %145, align 8, !tbaa !28
  %147 = load ptr, ptr %4, align 8, !tbaa !3
  %148 = getelementptr inbounds nuw %struct.rsa_st, ptr %147, i32 0, i32 6
  %149 = load ptr, ptr %148, align 8, !tbaa !32
  %150 = load ptr, ptr %9, align 8, !tbaa !12
  %151 = load ptr, ptr %5, align 8, !tbaa !8
  %152 = call i32 @BN_mod_mul(ptr noundef %143, ptr noundef %146, ptr noundef %149, ptr noundef %150, ptr noundef %151)
  %153 = icmp ne i32 %152, 0
  br i1 %153, label %154, label %176

154:                                              ; preds = %142
  %155 = load ptr, ptr %7, align 8, !tbaa !12
  %156 = call i32 @BN_is_one(ptr noundef %155)
  %157 = icmp ne i32 %156, 0
  br i1 %157, label %158, label %176

158:                                              ; preds = %154
  %159 = load ptr, ptr %7, align 8, !tbaa !12
  %160 = load ptr, ptr %4, align 8, !tbaa !3
  %161 = getelementptr inbounds nuw %struct.rsa_st, ptr %160, i32 0, i32 12
  %162 = load ptr, ptr %161, align 8, !tbaa !29
  %163 = load ptr, ptr %4, align 8, !tbaa !3
  %164 = getelementptr inbounds nuw %struct.rsa_st, ptr %163, i32 0, i32 9
  %165 = load ptr, ptr %164, align 8, !tbaa !31
  %166 = load ptr, ptr %4, align 8, !tbaa !3
  %167 = getelementptr inbounds nuw %struct.rsa_st, ptr %166, i32 0, i32 8
  %168 = load ptr, ptr %167, align 8, !tbaa !30
  %169 = load ptr, ptr %5, align 8, !tbaa !8
  %170 = call i32 @BN_mod_mul(ptr noundef %159, ptr noundef %162, ptr noundef %165, ptr noundef %168, ptr noundef %169)
  %171 = icmp ne i32 %170, 0
  br i1 %171, label %172, label %176

172:                                              ; preds = %158
  %173 = load ptr, ptr %7, align 8, !tbaa !12
  %174 = call i32 @BN_is_one(ptr noundef %173)
  %175 = icmp ne i32 %174, 0
  br label %176

176:                                              ; preds = %172, %158, %154, %142, %138, %126, %117, %110, %103, %96, %89, %82, %78, %71, %67, %60, %57
  %177 = phi i1 [ false, %158 ], [ false, %154 ], [ false, %142 ], [ false, %138 ], [ false, %126 ], [ false, %117 ], [ false, %110 ], [ false, %103 ], [ false, %96 ], [ false, %89 ], [ false, %82 ], [ false, %78 ], [ false, %71 ], [ false, %67 ], [ false, %60 ], [ false, %57 ], [ %175, %172 ]
  %178 = zext i1 %177 to i32
  store i32 %178, ptr %6, align 4, !tbaa !10
  %179 = load ptr, ptr %7, align 8, !tbaa !12
  call void @BN_clear(ptr noundef %179)
  %180 = load ptr, ptr %8, align 8, !tbaa !12
  call void @BN_clear(ptr noundef %180)
  %181 = load ptr, ptr %9, align 8, !tbaa !12
  call void @BN_clear(ptr noundef %181)
  %182 = load ptr, ptr %5, align 8, !tbaa !8
  call void @BN_CTX_end(ptr noundef %182)
  %183 = load i32, ptr %6, align 4, !tbaa !10
  store i32 %183, ptr %3, align 4
  store i32 1, ptr %10, align 4
  br label %184

184:                                              ; preds = %176, %41, %40
  call void @llvm.lifetime.end.p0(i64 8, ptr %9) #3
  call void @llvm.lifetime.end.p0(i64 8, ptr %8) #3
  call void @llvm.lifetime.end.p0(i64 8, ptr %7) #3
  call void @llvm.lifetime.end.p0(i64 4, ptr %6) #3
  %185 = load i32, ptr %3, align 4
  ret i32 %185
}