; Function Attrs: nounwind uwtable
define range(i32 0, 2) i32 @ossl_rsa_check_crt_components(ptr noundef readonly captures(none) %0, ptr noundef %1) local_unnamed_addr #0 {
  %3 = getelementptr inbounds nuw i8, ptr %0, i64 80
  %4 = load ptr, ptr %3, align 8, !tbaa !3
  %5 = icmp eq ptr %4, null
  %6 = getelementptr inbounds nuw i8, ptr %0, i64 88
  %7 = load ptr, ptr %6, align 8, !tbaa !22
  %.not66 = icmp eq ptr %7, null
  br i1 %5, label %13, label %8

8:                                                ; preds = %2
  br i1 %.not66, label %.thread, label %9

9:                                                ; preds = %8
  %10 = getelementptr inbounds nuw i8, ptr %0, i64 96
  %11 = load ptr, ptr %10, align 8, !tbaa !23
  %12 = icmp eq ptr %11, null
  br i1 %12, label %.thread, label %17

13:                                               ; preds = %2
  br i1 %.not66, label %14, label %.thread

14:                                               ; preds = %13
  %15 = getelementptr inbounds nuw i8, ptr %0, i64 96
  %16 = load ptr, ptr %15, align 8, !tbaa !23
  %.not67 = icmp eq ptr %16, null
  %spec.select = zext i1 %.not67 to i32
  br label %.thread

17:                                               ; preds = %9
  tail call void @BN_CTX_start(ptr noundef %1) #3
  %18 = tail call ptr @BN_CTX_get(ptr noundef %1) #3
  %19 = tail call ptr @BN_CTX_get(ptr noundef %1) #3
  %20 = tail call ptr @BN_CTX_get(ptr noundef %1) #3
  %.not = icmp eq ptr %20, null
  br i1 %.not, label %.critedge, label %21

21:                                               ; preds = %17
  tail call void @BN_set_flags(ptr noundef %18, i32 noundef 4) #3
  tail call void @BN_set_flags(ptr noundef %19, i32 noundef 4) #3
  tail call void @BN_set_flags(ptr noundef nonnull %20, i32 noundef 4) #3
  %22 = getelementptr inbounds nuw i8, ptr %0, i64 64
  %23 = load ptr, ptr %22, align 8, !tbaa !24
  %24 = tail call ptr @BN_copy(ptr noundef %19, ptr noundef %23) #3
  %.not56 = icmp eq ptr %24, null
  br i1 %.not56, label %.critedge, label %25

25:                                               ; preds = %21
  %26 = tail call i32 @BN_sub_word(ptr noundef %19, i64 noundef 1) #3
  %.not57 = icmp eq i32 %26, 0
  br i1 %.not57, label %.critedge, label %27

27:                                               ; preds = %25
  %28 = getelementptr inbounds nuw i8, ptr %0, i64 72
  %29 = load ptr, ptr %28, align 8, !tbaa !25
  %30 = tail call ptr @BN_copy(ptr noundef nonnull %20, ptr noundef %29) #3
  %.not58 = icmp eq ptr %30, null
  br i1 %.not58, label %.critedge, label %31

31:                                               ; preds = %27
  %32 = tail call i32 @BN_sub_word(ptr noundef nonnull %20, i64 noundef 1) #3
  %.not59 = icmp eq i32 %32, 0
  br i1 %.not59, label %.critedge, label %33

33:                                               ; preds = %31
  %34 = load ptr, ptr %3, align 8, !tbaa !3
  %35 = tail call ptr @BN_value_one() #3
  %36 = tail call i32 @BN_cmp(ptr noundef %34, ptr noundef %35) #3
  %37 = icmp sgt i32 %36, 0
  br i1 %37, label %38, label %.critedge

38:                                               ; preds = %33
  %39 = load ptr, ptr %3, align 8, !tbaa !3
  %40 = tail call i32 @BN_cmp(ptr noundef %39, ptr noundef %19) #3
  %41 = icmp slt i32 %40, 0
  br i1 %41, label %42, label %.critedge

42:                                               ; preds = %38
  %43 = load ptr, ptr %6, align 8, !tbaa !22
  %44 = tail call ptr @BN_value_one() #3
  %45 = tail call i32 @BN_cmp(ptr noundef %43, ptr noundef %44) #3
  %46 = icmp sgt i32 %45, 0
  br i1 %46, label %47, label %.critedge

47:                                               ; preds = %42
  %48 = load ptr, ptr %6, align 8, !tbaa !22
  %49 = tail call i32 @BN_cmp(ptr noundef %48, ptr noundef nonnull %20) #3
  %50 = icmp slt i32 %49, 0
  br i1 %50, label %51, label %.critedge

51:                                               ; preds = %47
  %52 = load ptr, ptr %10, align 8, !tbaa !23
  %53 = tail call ptr @BN_value_one() #3
  %54 = tail call i32 @BN_cmp(ptr noundef %52, ptr noundef %53) #3
  %55 = icmp sgt i32 %54, 0
  br i1 %55, label %56, label %.critedge

56:                                               ; preds = %51
  %57 = load ptr, ptr %10, align 8, !tbaa !23
  %58 = load ptr, ptr %22, align 8, !tbaa !24
  %59 = tail call i32 @BN_cmp(ptr noundef %57, ptr noundef %58) #3
  %60 = icmp slt i32 %59, 0
  br i1 %60, label %61, label %.critedge

61:                                               ; preds = %56
  %62 = load ptr, ptr %3, align 8, !tbaa !3
  %63 = getelementptr inbounds nuw i8, ptr %0, i64 48
  %64 = load ptr, ptr %63, align 8, !tbaa !26
  %65 = tail call i32 @BN_mod_mul(ptr noundef %18, ptr noundef %62, ptr noundef %64, ptr noundef %19, ptr noundef %1) #3
  %.not60 = icmp eq i32 %65, 0
  br i1 %.not60, label %.critedge, label %66

66:                                               ; preds = %61
  %67 = tail call i32 @BN_is_one(ptr noundef %18) #3
  %.not61 = icmp eq i32 %67, 0
  br i1 %.not61, label %.critedge, label %68

68:                                               ; preds = %66
  %69 = load ptr, ptr %6, align 8, !tbaa !22
  %70 = load ptr, ptr %63, align 8, !tbaa !26
  %71 = tail call i32 @BN_mod_mul(ptr noundef %18, ptr noundef %69, ptr noundef %70, ptr noundef nonnull %20, ptr noundef %1) #3
  %.not62 = icmp eq i32 %71, 0
  br i1 %.not62, label %.critedge, label %72

72:                                               ; preds = %68
  %73 = tail call i32 @BN_is_one(ptr noundef %18) #3
  %.not63 = icmp eq i32 %73, 0
  br i1 %.not63, label %.critedge, label %74

74:                                               ; preds = %72
  %75 = load ptr, ptr %10, align 8, !tbaa !23
  %76 = load ptr, ptr %28, align 8, !tbaa !25
  %77 = load ptr, ptr %22, align 8, !tbaa !24
  %78 = tail call i32 @BN_mod_mul(ptr noundef %18, ptr noundef %75, ptr noundef %76, ptr noundef %77, ptr noundef %1) #3
  %.not64 = icmp eq i32 %78, 0
  br i1 %.not64, label %.critedge, label %79

79:                                               ; preds = %74
  %80 = tail call i32 @BN_is_one(ptr noundef %18) #3
  %81 = icmp ne i32 %80, 0
  %82 = zext i1 %81 to i32
  br label %.critedge

.critedge:                                        ; preds = %17, %79, %74, %72, %68, %66, %61, %56, %51, %47, %42, %38, %33, %31, %27, %25, %21
  %83 = phi i32 [ 0, %74 ], [ 0, %72 ], [ 0, %68 ], [ 0, %66 ], [ 0, %61 ], [ 0, %56 ], [ 0, %51 ], [ 0, %47 ], [ 0, %42 ], [ 0, %38 ], [ 0, %33 ], [ 0, %31 ], [ 0, %27 ], [ 0, %25 ], [ 0, %21 ], [ %82, %79 ], [ 0, %17 ]
  tail call void @BN_clear(ptr noundef %18) #3
  tail call void @BN_clear(ptr noundef %19) #3
  tail call void @BN_clear(ptr noundef %20) #3
  tail call void @BN_CTX_end(ptr noundef %1) #3
  br label %.thread

.thread:                                          ; preds = %8, %9, %14, %13, %.critedge
  %.053 = phi i32 [ %83, %.critedge ], [ 0, %13 ], [ %spec.select, %14 ], [ 0, %9 ], [ 0, %8 ]
  ret i32 %.053
}